; Function Attrs: mustprogress uwtable
define void @_ZNK7openvdb5v11_02io4File8readGridERKNS1_14GridDescriptorERKNS0_4math4BBoxINS6_4Vec3IdEEEE(ptr noalias sret(%"class.std::shared_ptr.71") align 8 %agg.result, ptr noundef nonnull align 8 dereferenceable(80) %this, ptr noundef nonnull align 8 dereferenceable(160) %gd, ptr noundef nonnull align 8 dereferenceable(48) %bbox) local_unnamed_addr #5 align 2 personality ptr @__gxx_personality_v0 {
entry:
  tail call void @_ZNK7openvdb5v11_02io4File10createGridERKNS1_14GridDescriptorE(ptr sret(%"class.std::shared_ptr.71") align 8 %agg.result, ptr noundef nonnull align 8 dereferenceable(80) %this, ptr noundef nonnull align 8 dereferenceable(160) %gd)
  %call.i = invoke noundef nonnull align 8 dereferenceable(16) ptr @_ZNK7openvdb5v11_02io4File11inputStreamEv(ptr noundef nonnull align 8 dereferenceable(80) %this)
          to label %invoke.cont.i unwind label %lpad.i

invoke.cont.i:                                    ; preds = %entry
  invoke void @_ZNK7openvdb5v11_02io14GridDescriptor10seekToGridERSi(ptr noundef nonnull align 8 dereferenceable(160) %gd, ptr noundef nonnull align 8 dereferenceable(16) %call.i)
          to label %invoke.cont1.i unwind label %lpad.i

invoke.cont1.i:                                   ; preds = %invoke.cont.i
  invoke void @_ZN7openvdb5v11_02io4File4Impl9unarchiveERKS2_RSt10shared_ptrINS0_8GridBaseEERKNS1_14GridDescriptorERKNS0_4math4BBoxINSD_4Vec3IdEEEE(ptr noundef nonnull align 8 dereferenceable(80) %this, ptr noundef nonnull align 8 dereferenceable(16) %agg.result, ptr noundef nonnull align 8 dereferenceable(160) %gd, ptr noundef nonnull align 8 dereferenceable(48) %bbox)
          to label %_ZN7openvdb5v11_02io4File4Impl8readGridINS0_4math4BBoxINS5_4Vec3IdEEEEEESt10shared_ptrINS0_8GridBaseEERKS2_RKNS1_14GridDescriptorERKT_.exit unwind label %lpad.i

lpad.i:                                           ; preds = %invoke.cont1.i, %invoke.cont.i, %entry
  %0 = landingpad { ptr, i32 }
          cleanup
  tail call void @_ZNSt10shared_ptrIN7openvdb5v11_08GridBaseEED2Ev(ptr noundef nonnull align 8 dereferenceable(16) %agg.result) #28
  resume { ptr, i32 } %0

_ZN7openvdb5v11_02io4File4Impl8readGridINS0_4math4BBoxINS5_4Vec3IdEEEEEESt10shared_ptrINS0_8GridBaseEERKS2_RKNS1_14GridDescriptorERKT_.exit: ; preds = %invoke.cont1.i
  ret void
}